target datalayout = "e-m:e-p270:32:32-p271:32:32-p272:64:64-i64:64-i128:128-f80:128-n8:16:32:64-S128"
target triple = "x86_64-pc-linux-gnu"

%struct.hb_trampoline_closure_t = type { ptr, ptr, i32 }

; Function Attrs: mustprogress uwtable
define internal void @_ZL18trampoline_destroyPv(ptr noundef %0) #0 {
  %2 = alloca ptr, align 8
  %3 = alloca ptr, align 8
  store ptr %0, ptr %2, align 8
  %4 = load ptr, ptr %2, align 8
  store ptr %4, ptr %3, align 8
  %5 = load ptr, ptr %3, align 8
  %6 = getelementptr inbounds %struct.hb_trampoline_closure_t, ptr %5, i32 0, i32 2
  %7 = load i32, ptr %6, align 8
  %8 = add i32 %7, -1
  store i32 %8, ptr %6, align 8
  %9 = icmp ne i32 %8, 0
  br i1 %9, label %10, label %11

10:                                               ; preds = %1
  br label %25

11:                                               ; preds = %1
  %12 = load ptr, ptr %3, align 8
  %13 = getelementptr inbounds %struct.hb_trampoline_closure_t, ptr %12, i32 0, i32 1
  %14 = load ptr, ptr %13, align 8
  %15 = icmp ne ptr %14, null
  br i1 %15, label %16, label %23

16:                                               ; preds = %11
  %17 = load ptr, ptr %3, align 8
  %18 = getelementptr inbounds %struct.hb_trampoline_closure_t, ptr %17, i32 0, i32 1
  %19 = load ptr, ptr %18, align 8
  %20 = load ptr, ptr %3, align 8
  %21 = getelementptr inbounds %struct.hb_trampoline_closure_t, ptr %20, i32 0, i32 0
  %22 = load ptr, ptr %21, align 8
  call void %19(ptr noundef %22)
  br label %23

23:                                               ; preds = %16, %11
  %24 = load ptr, ptr %3, align 8
  call void @free(ptr noundef %24) #12
  br label %25

25:                                               ; preds = %23, %10
  ret void
}