; Function Attrs: mustprogress uwtable
define internal void @_ZL18trampoline_destroyPv(ptr nocapture noundef %0) #1 {
  %2 = getelementptr inbounds i8, ptr %0, i64 16
  %3 = load i32, ptr %2, align 8
  %4 = add i32 %3, -1
  store i32 %4, ptr %2, align 8
  %.not = icmp eq i32 %4, 0
  br i1 %.not, label %5, label %11

5:                                                ; preds = %1
  %6 = getelementptr inbounds i8, ptr %0, i64 8
  %7 = load ptr, ptr %6, align 8
  %.not6 = icmp eq ptr %7, null
  br i1 %.not6, label %10, label %8

8:                                                ; preds = %5
  %9 = load ptr, ptr %0, align 8
  tail call void %7(ptr noundef %9)
  br label %10

10:                                               ; preds = %8, %5
  tail call void @free(ptr noundef nonnull %0) #24
  br label %11

11:                                               ; preds = %1, %10
  ret void
}